Certificate:
    Data:
        Version: 3 (0x2)
        Serial Number: 1 (0x1)
    Signature Algorithm: sha256WithRSAEncryption
        Issuer: C=CN, ST=SC, L=CD, O=tofly.cn, OU=gis, CN=Aiello Chan/emailAddress=770540123@qq.com
        Validity
            Not Before: Nov 18 13:08:33 2016 GMT
            Not After : Nov 16 13:08:33 2026 GMT
        Subject: C=CN, ST=SC, O=flyants.cn, OU=it, CN=Aiello Chan/emailAddress=770540123@qq.com
        Subject Public Key Info:
            Public Key Algorithm: rsaEncryption
                Public-Key: (4096 bit)
                Modulus:
                    00:9e:28:f0:b9:e7:34:5e:c2:25:66:93:0e:0b:17:
                    ad:be:be:a0:f7:e6:59:9e:33:fd:f5:c8:cc:90:d3:
                    0c:28:fe:92:3a:34:3b:05:ea:6b:d1:29:bc:87:0a:
                    52:f6:14:21:81:69:b3:7a:77:6d:62:07:b4:da:93:
                    f0:2b:1e:95:29:e6:c2:2a:39:ef:89:ef:c3:f9:61:
                    c1:36:6f:1f:c9:25:47:b9:b3:cb:40:69:47:ec:60:
                    a3:34:6b:e1:56:08:1f:6d:eb:93:68:1a:0b:4e:6b:
                    a1:2c:81:39:c6:ac:cf:54:09:fc:52:cf:33:35:9a:
                    1b:d7:50:c3:48:b0:e8:e1:c3:37:ab:a1:99:3e:7b:
                    8c:70:7f:5f:11:80:07:da:6f:90:e8:4b:e9:23:84:
                    be:9f:f5:ab:28:fb:3c:27:c3:7d:51:b0:68:0c:c3:
                    be:7b:31:c5:8b:8f:ce:cd:b8:b1:7b:ab:fe:b3:a4:
                    ef:d5:02:e9:a9:91:5a:d7:58:4d:02:6d:85:31:1b:
                    f8:8e:33:ed:fb:13:08:97:b4:b9:78:d3:4d:65:b3:
                    4a:99:1f:db:a9:10:eb:f8:e4:53:7b:3f:33:a8:9a:
                    4f:d2:43:b4:26:f9:b2:f7:ec:3e:6f:f9:54:04:f1:
                    28:cb:5f:42:dc:13:52:77:cf:ba:bd:48:d2:0a:20:
                    88:1e:e9:9b:11:a4:82:67:24:a3:58:c8:b7:ec:5f:
                    65:07:87:39:87:4e:10:69:4f:ff:a2:19:d2:be:f8:
                    91:a0:c1:a0:6c:48:82:31:82:80:20:33:24:fc:e3:
                    70:80:de:95:51:3b:53:92:c4:e8:80:6e:b8:27:fe:
                    d5:bb:dc:9a:bd:c5:5c:bd:18:7e:7f:15:19:75:c8:
                    cd:75:24:2f:af:b5:42:7c:f2:14:2e:1b:15:22:af:
                    83:35:e0:9f:1f:e3:e2:2e:6d:23:92:50:1c:af:a4:
                    33:77:30:69:70:90:fd:f1:c9:00:da:2e:d6:37:2f:
                    8d:f8:e4:70:d5:a7:40:c1:53:eb:9c:05:fc:c1:3a:
                    28:e2:df:f1:86:60:b2:9f:25:6c:6d:59:f6:79:c7:
                    7c:d3:a6:df:ca:cf:88:29:84:a1:23:03:be:fb:77:
                    a5:ad:ea:60:1a:d0:bb:00:08:b4:c6:b2:96:80:24:
                    a8:35:de:a7:82:5c:18:f3:37:d0:03:35:92:e5:41:
                    80:71:a1:e5:8d:e0:b7:0b:f5:5c:d9:49:c3:9e:4a:
                    0d:4d:3c:d0:2c:17:0b:4a:7b:06:9b:34:14:64:93:
                    fc:cc:d6:ec:2f:b1:68:ad:69:93:ba:b5:6f:93:66:
                    d5:58:c0:9c:7b:63:70:ab:68:c1:39:ce:6c:a3:ac:
                    05:4f:8d
                Exponent: 65537 (0x10001)
        X509v3 extensions:
            X509v3 Basic Constraints: 
                CA:FALSE
            Netscape Comment: 
                OpenSSL Generated Certificate
            X509v3 Subject Key Identifier: 
                CA:2B:E6:51:89:43:01:76:78:64:E6:E2:C7:71:F2:1F:C0:C2:F4:31
            X509v3 Authority Key Identifier: 
                keyid:E2:87:2B:BD:BF:78:00:D4:8A:B0:E3:33:8E:12:4A:F2:1D:EA:FF:DD

    Signature Algorithm: sha256WithRSAEncryption
         ae:03:21:dc:cc:74:7e:7b:09:79:f5:1d:a2:99:2d:8d:cf:9e:
         79:46:2b:3e:33:cf:06:8c:59:2f:65:e0:06:a6:d2:c0:29:7b:
         31:93:78:29:22:e1:47:ae:de:74:2e:6e:e9:54:92:69:66:9c:
         e8:74:2b:7d:74:2d:50:1d:ee:03:c5:1d:fc:00:cc:f5:0f:71:
         ce:53:fe:dc:04:79:54:0b:84:34:7a:bf:2f:bb:0f:b6:b4:4a:
         16:80:51:d0:89:77:bb:37:d5:8e:85:b3:ed:6a:66:3e:ab:ec:
         55:c4:50:cf:f7:8a:21:2a:11:ca:bc:15:6d:2c:e1:6b:2f:6a:
         a1:21:bf:bd:55:06:5b:41:ac:a5:f3:e5:3e:10:2b:3c:03:bc:
         4d:26:c3:04:cd:dd:96:21:92:51:a5:dc:34:52:5f:8c:2f:e5:
         ae:33:6e:8b:d7:1d:7c:18:c3:e7:15:3a:f2:c8:e6:71:5d:b2:
         c9:cd:7e:91:85:00:4f:fb:1d:50:87:8a:02:7a:81:be:1d:9d:
         e8:b6:db:f0:94:b8:f7:19:aa:d6:9c:1a:92:d2:f6:78:4f:8c:
         00:00:70:c2:eb:4c:d7:91:5d:98:0e:6b:58:f3:3e:4b:c8:9b:
         df:b0:7b:0a:96:56:41:3c:29:82:45:69:5e:c3:db:3c:dc:39:
         79:5c:30:17:82:24:46:59:9c:ab:c9:f3:54:80:8a:95:0b:ea:
         e2:f2:dd:c3:19:cd:1a:98:9d:56:75:e6:5a:e6:a1:cc:62:41:
         39:76:83:f0:14:f9:7b:2f:65:86:2c:fe:85:d6:6b:22:58:2f:
         5f:77:f3:dc:50:50:ba:93:ef:92:7d:80:75:f1:b0:be:0b:1e:
         30:58:6d:79:a8:6d:b8:69:b5:34:76:78:52:d7:86:c3:50:14:
         64:87:e4:a5:ff:7c:38:d9:fc:d5:2e:10:70:36:8a:5a:0b:21:
         a6:3f:64:93:b2:a1:f0:6f:63:21:4f:3b:89:1f:ec:31:e2:0c:
         d8:b6:1a:72:29:2f:11:45:99:f9:ad:ea:5d:c8:1a:aa:ce:4d:
         61:ca:0d:3c:17:79:5a:5a:cb:bb:ae:85:a7:51:ff:d0:fe:78:
         f7:fa:78:e8:bb:a0:bb:52:52:d5:1d:54:17:ff:bd:81:6c:cc:
         de:6f:9b:2b:bd:ca:87:b7:e8:be:32:04:a0:d1:6b:df:bc:e1:
         4d:b5:bb:1b:a8:05:90:c3:12:ec:6f:2b:23:6b:e1:a0:f0:4e:
         00:cb:83:4c:49:59:5c:64:82:5c:0b:b1:8e:7f:d7:40:04:b3:
         76:bf:80:7a:f2:c2:39:51:9e:9e:f8:52:9b:a9:8d:a8:e9:ad:
         41:e1:32:f9:0a:4a:5c:02
-----BEGIN CERTIFICATE-----
MIIF6DCCA9CgAwIBAgIBATANBgkqhkiG9w0BAQsFADB/MQswCQYDVQQGEwJDTjEL
MAkGA1UECAwCU0MxCzAJBgNVBAcMAkNEMREwDwYDVQQKDAh0b2ZseS5jbjEMMAoG
A1UECwwDZ2lzMRQwEgYDVQQDDAtBaWVsbG8gQ2hhbjEfMB0GCSqGSIb3DQEJARYQ
NzcwNTQwMTIzQHFxLmNvbTAeFw0xNjExMTgxMzA4MzNaFw0yNjExMTYxMzA4MzNa
MHMxCzAJBgNVBAYTAkNOMQswCQYDVQQIDAJTQzETMBEGA1UECgwKZmx5YW50cy5j
bjELMAkGA1UECwwCaXQxFDASBgNVBAMMC0FpZWxsbyBDaGFuMR8wHQYJKoZIhvcN
AQkBFhA3NzA1NDAxMjNAcXEuY29tMIICIjANBgkqhkiG9w0BAQEFAAOCAg8AMIIC
CgKCAgEAnijwuec0XsIlZpMOCxetvr6g9+ZZnjP99cjMkNMMKP6SOjQ7Bepr0Sm8
hwpS9hQhgWmzendtYge02pPwKx6VKebCKjnvie/D+WHBNm8fySVHubPLQGlH7GCj
NGvhVggfbeuTaBoLTmuhLIE5xqzPVAn8Us8zNZob11DDSLDo4cM3q6GZPnuMcH9f
EYAH2m+Q6EvpI4S+n/WrKPs8J8N9UbBoDMO+ezHFi4/Ozbixe6v+s6Tv1QLpqZFa
11hNAm2FMRv4jjPt+xMIl7S5eNNNZbNKmR/bqRDr+ORTez8zqJpP0kO0Jvmy9+w+
b/lUBPEoy19C3BNSd8+6vUjSCiCIHumbEaSCZySjWMi37F9lB4c5h04QaU//ohnS
vviRoMGgbEiCMYKAIDMk/ONwgN6VUTtTksTogG64J/7Vu9yavcVcvRh+fxUZdcjN
dSQvr7VCfPIULhsVIq+DNeCfH+PiLm0jklAcr6QzdzBpcJD98ckA2i7WNy+N+ORw
1adAwVPrnAX8wToo4t/xhmCynyVsbVn2ecd806bfys+IKYShIwO++3elrepgGtC7
AAi0xrKWgCSoNd6nglwY8zfQAzWS5UGAcaHljeC3C/Vc2UnDnkoNTTzQLBcLSnsG
mzQUZJP8zNbsL7ForWmTurVvk2bVWMCce2Nwq2jBOc5so6wFT40CAwEAAaN7MHkw
CQYDVR0TBAIwADAsBglghkgBhvhCAQ0EHxYdT3BlblNTTCBHZW5lcmF0ZWQgQ2Vy
dGlmaWNhdGUwHQYDVR0OBBYEFMor5lGJQwF2eGTm4sdx8h/AwvQxMB8GA1UdIwQY
MBaAFOKHK72/eADUirDjM44SSvId6v/dMA0GCSqGSIb3DQEBCwUAA4ICAQCuAyHc
zHR+ewl59R2imS2Nz555Ris+M88GjFkvZeAGptLAKXsxk3gpIuFHrt50Lm7pVJJp
ZpzodCt9dC1QHe4DxR38AMz1D3HOU/7cBHlUC4Q0er8vuw+2tEoWgFHQiXe7N9WO
hbPtamY+q+xVxFDP94ohKhHKvBVtLOFrL2qhIb+9VQZbQayl8+U+ECs8A7xNJsME
zd2WIZJRpdw0Ul+ML+WuM26L1x18GMPnFTryyOZxXbLJzX6RhQBP+x1Qh4oCeoG+
HZ3ottvwlLj3GarWnBqS0vZ4T4wAAHDC60zXkV2YDmtY8z5LyJvfsHsKllZBPCmC
RWlew9s83Dl5XDAXgiRGWZyryfNUgIqVC+ri8t3DGc0amJ1WdeZa5qHMYkE5doPw
FPl7L2WGLP6F1msiWC9fd/PcUFC6k++SfYB18bC+Cx4wWG15qG24abU0dnhS14bD
UBRkh+Sl/3w42fzVLhBwNopaCyGmP2STsqHwb2MhTzuJH+wx4gzYthpyKS8RRZn5
repdyBqqzk1hyg08F3laWsu7roWnUf/Q/nj3+njou6C7UlLVHVQX/72BbMzeb5sr
vcqHt+i+MgSg0WvfvOFNtbsbqAWQwxLsbysja+Gg8E4Ay4NMSVlcZIJcC7GOf9dA
BLN2v4B68sI5UZ6e+FKbqY2o6a1B4TL5CkpcAg==
-----END CERTIFICATE-----
